

Microchip Technology PIC18 LITE Macro Assembler V1.36 build -262312587 
                                                                                               Tue Nov 08 21:07:25 2016

Microchip Technology Omniscient Code Generator v1.36 (Free mode) build 201601150325
     1                           	processor	18F46K22
     2                           	fnconf	rparam,??,?,0
     3                           	opt	pw 120
     4                           	opt	lm
     5                           	psect	cinit,global,reloc=2,class=CODE,delta=1
     6                           	psect	bssCOMRAM,global,class=COMRAM,space=1,delta=1
     7                           	psect	cstackCOMRAM,global,class=COMRAM,space=1,delta=1
     8                           	psect	text0,global,reloc=2,class=CODE,delta=1
     9                           	psect	text1,global,reloc=2,class=CODE,delta=1
    10                           	psect	text2,global,reloc=2,class=CODE,delta=1
    11                           	psect	text3,global,reloc=2,class=CODE,delta=1
    12                           	psect	text4,global,reloc=2,class=CODE,delta=1
    13                           	psect	text5,global,reloc=2,class=CODE,delta=1
    14                           	psect	text6,global,reloc=2,class=CODE,delta=1
    15                           	psect	intcode,global,reloc=2,class=CODE,delta=1
    16                           	psect	text8,global,reloc=2,class=CODE,delta=1
    17                           	psect	text9,global,reloc=2,class=CODE,delta=1
    18                           	psect	text10,global,reloc=2,class=CODE,delta=1
    19                           	psect	intsave_regs,global,class=BIGRAM,space=1,delta=1
    20                           	psect	rparam,global,class=COMRAM,space=1,delta=1
    21                           	psect	temp,global,ovrld,common,class=COMRAM,space=1,delta=1
    22  0000                     _ANSELB	set	3897
    23  0000                     _ANSELDbits	set	3899
    24  0000                     _INTCONbits	set	4082
    25  0000                     _LATB	set	3978
    26  0000                     _LATDbits	set	3980
    27  0000                     _OSCCONbits	set	4051
    28  0000                     _OSCTUNEbits	set	3995
    29  0000                     _T0CONbits	set	4053
    30  0000                     _TMR0H	set	4055
    31  0000                     _TMR0L	set	4054
    32  0000                     _TRISB	set	3987
    33  0000                     _TRISDbits	set	3989
    34  0000                     _TMR0IE	set	32661
    35  0000                     _TMR0IF	set	32658
    36                           
    37                           ; #config settings
    38  0000                     
    39                           	psect	cinit
    40  0001B0                     __pcinit:
    41                           	opt stack 0
    42  0001B0                     start_initialization:
    43                           	opt stack 0
    44  0001B0                     __initialization:
    45                           	opt stack 0
    46                           
    47                           ; Clear objects allocated to COMRAM (8 bytes)
    48  0001B0  EE00  F013         	lfsr	0,__pbssCOMRAM
    49  0001B4  0E08               	movlw	8
    50  0001B6                     clear_0:
    51  0001B6  6AEE               	clrf	postinc0,c
    52  0001B8  06E8               	decf	wreg,f,c
    53  0001BA  E1FD               	bnz	clear_0
    54  0001BC                     end_of_initialization:
    55                           	opt stack 0
    56  0001BC                     __end_of__initialization:
    57                           	opt stack 0
    58  0001BC  901B               	bcf	int$flags,0,c	;clear compiler interrupt flag (level 1)
    59  0001BE  921B               	bcf	int$flags,1,c	;clear compiler interrupt flag (level 2)
    60  0001C0  0E00               	movlw	low (__Lmediumconst shr (0+16))
    61  0001C2  6EF8               	movwf	tblptru,c
    62  0001C4  0100               	movlb	0
    63  0001C6  EF97  F000         	goto	_main	;jump to C main() function
    64                           tblptru	equ	0xFF8
    65                           postinc0	equ	0xFEE
    66                           wreg	equ	0xFE8
    67                           
    68                           	psect	bssCOMRAM
    69  000013                     __pbssCOMRAM:
    70                           	opt stack 0
    71  000013                     _CtrlVarredura:
    72                           	opt stack 0
    73  000013                     	ds	8
    74                           tblptru	equ	0xFF8
    75                           postinc0	equ	0xFEE
    76                           wreg	equ	0xFE8
    77                           
    78                           	psect	cstackCOMRAM
    79  000001                     __pcstackCOMRAM:
    80                           	opt stack 0
    81  000001                     i2Display_LigaDigito@Caractere:
    82                           	opt stack 0
    83  000001                     i2Timer0_CarregaValor@Valor:
    84                           	opt stack 0
    85                           
    86                           ; 2 bytes @ 0x0
    87  000001                     	ds	1
    88  000002                     i2Display_LigaDigito@CodigoDoDigito:
    89                           	opt stack 0
    90                           
    91                           ; 1 bytes @ 0x1
    92  000002                     	ds	1
    93  000003                     ??_Isr:
    94                           
    95                           ; 1 bytes @ 0x2
    96  000003                     	ds	14
    97  000011                     Display_LigaDigito@Caractere:
    98                           	opt stack 0
    99  000011                     Varredura_Inicializacao@i:
   100                           	opt stack 0
   101  000011                     Timer0_CarregaValor@Valor:
   102                           	opt stack 0
   103                           
   104                           ; 2 bytes @ 0x10
   105  000011                     	ds	1
   106  000012                     Display_LigaDigito@CodigoDoDigito:
   107                           	opt stack 0
   108                           
   109                           ; 1 bytes @ 0x11
   110  000012                     	ds	1
   111  000013                     tblptru	equ	0xFF8
   112                           postinc0	equ	0xFEE
   113                           wreg	equ	0xFE8
   114                           
   115                           ; 1 bytes @ 0x12
   116 ;;
   117 ;;Main: autosize = 0, tempsize = 0, incstack = 0, save=0
   118 ;;
   119 ;; *************** function _main *****************
   120 ;; Defined at:
   121 ;;		line 102 in file "App.c"
   122 ;; Parameters:    Size  Location     Type
   123 ;;		None
   124 ;; Auto vars:     Size  Location     Type
   125 ;;		None
   126 ;; Return value:  Size  Location     Type
   127 ;;                  1    wreg      void 
   128 ;; Registers used:
   129 ;;		wreg, fsr2l, fsr2h, status,2, status,0, prodl, prodh, cstack
   130 ;; Tracked objects:
   131 ;;		On entry : 0/0
   132 ;;		On exit  : 0/0
   133 ;;		Unchanged: 0/0
   134 ;; Data sizes:     COMRAM   BANK0   BANK1   BANK2   BANK3   BANK4   BANK5   BANK6   BANK7   BANK8   BANK9  BANK10  BANK1
      +1  BANK12  BANK13  BANK14  BANK15
   135 ;;      Params:         0       0       0       0       0       0       0       0       0       0       0       0       
      +0       0       0       0       0
   136 ;;      Locals:         0       0       0       0       0       0       0       0       0       0       0       0       
      +0       0       0       0       0
   137 ;;      Temps:          0       0       0       0       0       0       0       0       0       0       0       0       
      +0       0       0       0       0
   138 ;;      Totals:         0       0       0       0       0       0       0       0       0       0       0       0       
      +0       0       0       0       0
   139 ;;Total ram usage:        0 bytes
   140 ;; Hardware stack levels required when called:    5
   141 ;; This function calls:
   142 ;;		_Display_Inicializacao
   143 ;;		_Oscilador_Inicializacao
   144 ;;		_Timer0_Inicializacao
   145 ;;		_Varredura_Inicializacao
   146 ;; This function is called by:
   147 ;;		Startup code after reset
   148 ;; This function uses a non-reentrant model
   149 ;;
   150                           
   151                           	psect	text0
   152  00012E                     __ptext0:
   153                           	opt stack 0
   154  00012E                     _main:
   155                           	opt stack 26
   156                           
   157                           ;App.c: 104: Oscilador_Inicializacao();
   158                           
   159                           ;incstack = 0
   160  00012E  EC18  F001         	call	_Oscilador_Inicializacao	;wreg free
   161                           
   162                           ;App.c: 105: Display_Inicializacao();
   163  000132  ECAF  F000         	call	_Display_Inicializacao	;wreg free
   164                           
   165                           ;App.c: 106: Timer0_Inicializacao();
   166  000136  ECFD  F000         	call	_Timer0_Inicializacao	;wreg free
   167                           
   168                           ;App.c: 108: Varredura_Inicializacao();
   169  00013A  ECC4  F000         	call	_Varredura_Inicializacao	;wreg free
   170                           
   171                           ;App.c: 111: CtrlVarredura.Buffer[0] = 0b11000011;
   172  00013E  0EC3               	movlw	195
   173  000140  6E14               	movwf	_CtrlVarredura+1,c
   174                           
   175                           ;App.c: 112: CtrlVarredura.Buffer[1] = 0b00000100;
   176  000142  0E04               	movlw	4
   177  000144  6E15               	movwf	_CtrlVarredura+2,c
   178                           
   179                           ;App.c: 113: CtrlVarredura.Buffer[2] = 0b01111000;
   180  000146  0E78               	movlw	120
   181  000148  6E16               	movwf	_CtrlVarredura+3,c
   182                           
   183                           ;App.c: 114: CtrlVarredura.Buffer[3] = 0b01111100;
   184  00014A  0E7C               	movlw	124
   185  00014C  6E17               	movwf	_CtrlVarredura+4,c
   186                           
   187                           ;App.c: 115: CtrlVarredura.Buffer[4] = 0b01000000;
   188  00014E  0E40               	movlw	64
   189  000150  6E18               	movwf	_CtrlVarredura+5,c
   190                           
   191                           ;App.c: 116: CtrlVarredura.Buffer[5] = 0b00000110;
   192  000152  0E06               	movlw	6
   193  000154  6E19               	movwf	_CtrlVarredura+6,c
   194                           
   195                           ;App.c: 117: CtrlVarredura.Buffer[6] = 0b01111101;
   196  000156  0E7D               	movlw	125
   197  000158  6E1A               	movwf	_CtrlVarredura+7,c
   198                           
   199                           ;App.c: 120: INTCONbits.GIEH = 1;
   200  00015A  8EF2               	bsf	intcon,7,c	;volatile
   201  00015C                     l79:
   202                           
   203                           ;App.c: 124: {
   204  00015C  D7FF               	goto	l79
   205  00015E                     __end_of_main:
   206                           	opt stack 0
   207                           tblptru	equ	0xFF8
   208                           intcon	equ	0xFF2
   209                           postinc0	equ	0xFEE
   210                           wreg	equ	0xFE8
   211                           
   212 ;; *************** function _Varredura_Inicializacao *****************
   213 ;; Defined at:
   214 ;;		line 89 in file "App.c"
   215 ;; Parameters:    Size  Location     Type
   216 ;;		None
   217 ;; Auto vars:     Size  Location     Type
   218 ;;  i               1   16[COMRAM] unsigned char 
   219 ;; Return value:  Size  Location     Type
   220 ;;                  1    wreg      void 
   221 ;; Registers used:
   222 ;;		wreg, fsr2l, fsr2h, status,2, status,0, prodl, prodh
   223 ;; Tracked objects:
   224 ;;		On entry : 0/0
   225 ;;		On exit  : 0/0
   226 ;;		Unchanged: 0/0
   227 ;; Data sizes:     COMRAM   BANK0   BANK1   BANK2   BANK3   BANK4   BANK5   BANK6   BANK7   BANK8   BANK9  BANK10  BANK1
      +1  BANK12  BANK13  BANK14  BANK15
   228 ;;      Params:         0       0       0       0       0       0       0       0       0       0       0       0       
      +0       0       0       0       0
   229 ;;      Locals:         1       0       0       0       0       0       0       0       0       0       0       0       
      +0       0       0       0       0
   230 ;;      Temps:          0       0       0       0       0       0       0       0       0       0       0       0       
      +0       0       0       0       0
   231 ;;      Totals:         1       0       0       0       0       0       0       0       0       0       0       0       
      +0       0       0       0       0
   232 ;;Total ram usage:        1 bytes
   233 ;; Hardware stack levels used:    1
   234 ;; Hardware stack levels required when called:    3
   235 ;; This function calls:
   236 ;;		Nothing
   237 ;; This function is called by:
   238 ;;		_main
   239 ;; This function uses a non-reentrant model
   240 ;;
   241                           
   242                           	psect	text1
   243  000188                     __ptext1:
   244                           	opt stack 0
   245  000188                     _Varredura_Inicializacao:
   246                           	opt stack 27
   247                           
   248                           ;App.c: 91: Uchar i;
   249                           ;App.c: 93: CtrlVarredura.Sequencia = 0;
   250                           
   251                           ;incstack = 0
   252  000188  0E00               	movlw	0
   253  00018A  6E13               	movwf	_CtrlVarredura,c
   254                           
   255                           ;App.c: 95: for (i = 0; i < 7; i++ )
   256  00018C  0E00               	movlw	0
   257  00018E  6E11               	movwf	Varredura_Inicializacao@i,c
   258  000190                     l766:
   259  000190  0E06               	movlw	6
   260  000192  6411               	cpfsgt	Varredura_Inicializacao@i,c
   261  000194  D001               	goto	l770
   262  000196  0012               	return	
   263  000198                     l770:
   264                           
   265                           ;App.c: 96: {
   266                           ;App.c: 97: CtrlVarredura.Buffer[i] = 0;
   267  000198  5011               	movf	Varredura_Inicializacao@i,w,c
   268  00019A  0D01               	mullw	1
   269  00019C  0E14               	movlw	low (_CtrlVarredura+1)
   270  00019E  24F3               	addwf	prodl,w,c
   271  0001A0  6ED9               	movwf	fsr2l,c
   272  0001A2  0E00               	movlw	high (_CtrlVarredura+1)
   273  0001A4  20F4               	addwfc	prodh,w,c
   274  0001A6  6EDA               	movwf	fsr2h,c
   275  0001A8  0E00               	movlw	0
   276  0001AA  6EDF               	movwf	indf2,c
   277  0001AC  2A11               	incf	Varredura_Inicializacao@i,f,c
   278  0001AE  D7F0               	goto	l766
   279  0001B0                     __end_of_Varredura_Inicializacao:
   280                           	opt stack 0
   281                           tblptru	equ	0xFF8
   282                           prodh	equ	0xFF4
   283                           prodl	equ	0xFF3
   284                           intcon	equ	0xFF2
   285                           postinc0	equ	0xFEE
   286                           wreg	equ	0xFE8
   287                           indf2	equ	0xFDF
   288                           fsr2h	equ	0xFDA
   289                           fsr2l	equ	0xFD9
   290                           
   291 ;; *************** function _Timer0_Inicializacao *****************
   292 ;; Defined at:
   293 ;;		line 37 in file "App.c"
   294 ;; Parameters:    Size  Location     Type
   295 ;;		None
   296 ;; Auto vars:     Size  Location     Type
   297 ;;		None
   298 ;; Return value:  Size  Location     Type
   299 ;;                  1    wreg      void 
   300 ;; Registers used:
   301 ;;		wreg, status,2, cstack
   302 ;; Tracked objects:
   303 ;;		On entry : 0/0
   304 ;;		On exit  : 0/0
   305 ;;		Unchanged: 0/0
   306 ;; Data sizes:     COMRAM   BANK0   BANK1   BANK2   BANK3   BANK4   BANK5   BANK6   BANK7   BANK8   BANK9  BANK10  BANK1
      +1  BANK12  BANK13  BANK14  BANK15
   307 ;;      Params:         0       0       0       0       0       0       0       0       0       0       0       0       
      +0       0       0       0       0
   308 ;;      Locals:         0       0       0       0       0       0       0       0       0       0       0       0       
      +0       0       0       0       0
   309 ;;      Temps:          0       0       0       0       0       0       0       0       0       0       0       0       
      +0       0       0       0       0
   310 ;;      Totals:         0       0       0       0       0       0       0       0       0       0       0       0       
      +0       0       0       0       0
   311 ;;Total ram usage:        0 bytes
   312 ;; Hardware stack levels used:    1
   313 ;; Hardware stack levels required when called:    4
   314 ;; This function calls:
   315 ;;		_Timer0_CarregaValor
   316 ;; This function is called by:
   317 ;;		_main
   318 ;; This function uses a non-reentrant model
   319 ;;
   320                           
   321                           	psect	text2
   322  0001FA                     __ptext2:
   323                           	opt stack 0
   324  0001FA                     _Timer0_Inicializacao:
   325                           	opt stack 26
   326                           
   327                           ;App.c: 39: T0CONbits.TMR0ON = 0;
   328                           
   329                           ;incstack = 0
   330  0001FA  9ED5               	bcf	4053,7,c	;volatile
   331                           
   332                           ;App.c: 40: T0CONbits.T08BIT = 0;
   333  0001FC  9CD5               	bcf	4053,6,c	;volatile
   334                           
   335                           ;App.c: 41: T0CONbits.T0CS = 0;
   336  0001FE  9AD5               	bcf	4053,5,c	;volatile
   337                           
   338                           ;App.c: 42: T0CONbits.PSA = 1;
   339  000200  86D5               	bsf	4053,3,c	;volatile
   340                           
   341                           ;App.c: 44: Timer0_CarregaValor();
   342  000202  EC06  F001         	call	_Timer0_CarregaValor	;wreg free
   343                           
   344                           ;App.c: 46: INTCONbits.TMR0IE = 1;
   345  000206  8AF2               	bsf	intcon,5,c	;volatile
   346                           
   347                           ;App.c: 47: T0CONbits.TMR0ON = 1;
   348  000208  8ED5               	bsf	4053,7,c	;volatile
   349  00020A  0012               	return		;funcret
   350  00020C                     __end_of_Timer0_Inicializacao:
   351                           	opt stack 0
   352                           tblptru	equ	0xFF8
   353                           prodh	equ	0xFF4
   354                           prodl	equ	0xFF3
   355                           intcon	equ	0xFF2
   356                           postinc0	equ	0xFEE
   357                           wreg	equ	0xFE8
   358                           indf2	equ	0xFDF
   359                           fsr2h	equ	0xFDA
   360                           fsr2l	equ	0xFD9
   361                           
   362 ;; *************** function _Timer0_CarregaValor *****************
   363 ;; Defined at:
   364 ;;		line 27 in file "App.c"
   365 ;; Parameters:    Size  Location     Type
   366 ;;		None
   367 ;; Auto vars:     Size  Location     Type
   368 ;;  Valor           2   16[COMRAM] struct .
   369 ;; Return value:  Size  Location     Type
   370 ;;                  1    wreg      void 
   371 ;; Registers used:
   372 ;;		wreg, status,2
   373 ;; Tracked objects:
   374 ;;		On entry : 0/0
   375 ;;		On exit  : 0/0
   376 ;;		Unchanged: 0/0
   377 ;; Data sizes:     COMRAM   BANK0   BANK1   BANK2   BANK3   BANK4   BANK5   BANK6   BANK7   BANK8   BANK9  BANK10  BANK1
      +1  BANK12  BANK13  BANK14  BANK15
   378 ;;      Params:         0       0       0       0       0       0       0       0       0       0       0       0       
      +0       0       0       0       0
   379 ;;      Locals:         2       0       0       0       0       0       0       0       0       0       0       0       
      +0       0       0       0       0
   380 ;;      Temps:          0       0       0       0       0       0       0       0       0       0       0       0       
      +0       0       0       0       0
   381 ;;      Totals:         2       0       0       0       0       0       0       0       0       0       0       0       
      +0       0       0       0       0
   382 ;;Total ram usage:        2 bytes
   383 ;; Hardware stack levels used:    1
   384 ;; Hardware stack levels required when called:    3
   385 ;; This function calls:
   386 ;;		Nothing
   387 ;; This function is called by:
   388 ;;		_Timer0_Inicializacao
   389 ;; This function uses a non-reentrant model
   390 ;;
   391                           
   392                           	psect	text3
   393  00020C                     __ptext3:
   394                           	opt stack 0
   395  00020C                     _Timer0_CarregaValor:
   396                           	opt stack 26
   397                           
   398                           ;App.c: 29: Uint16 Valor;
   399                           ;App.c: 31: Valor.valor = 43136;
   400                           
   401                           ;incstack = 0
   402  00020C  0EA8               	movlw	168
   403  00020E  6E12               	movwf	Timer0_CarregaValor@Valor+1,c
   404  000210  0E80               	movlw	128
   405  000212  6E11               	movwf	Timer0_CarregaValor@Valor,c
   406                           
   407                           ;App.c: 33: TMR0H = Valor.bytes.byte1;
   408  000214  C012  FFD7         	movff	Timer0_CarregaValor@Valor+1,4055	;volatile
   409                           
   410                           ;App.c: 34: TMR0L = Valor.bytes.byte0;
   411  000218  C011  FFD6         	movff	Timer0_CarregaValor@Valor,4054	;volatile
   412  00021C  0012               	return		;funcret
   413  00021E                     __end_of_Timer0_CarregaValor:
   414                           	opt stack 0
   415                           tblptru	equ	0xFF8
   416                           prodh	equ	0xFF4
   417                           prodl	equ	0xFF3
   418                           intcon	equ	0xFF2
   419                           postinc0	equ	0xFEE
   420                           wreg	equ	0xFE8
   421                           indf2	equ	0xFDF
   422                           fsr2h	equ	0xFDA
   423                           fsr2l	equ	0xFD9
   424                           
   425 ;; *************** function _Oscilador_Inicializacao *****************
   426 ;; Defined at:
   427 ;;		line 33 in file "Oscilador.c"
   428 ;; Parameters:    Size  Location     Type
   429 ;;		None
   430 ;; Auto vars:     Size  Location     Type
   431 ;;		None
   432 ;; Return value:  Size  Location     Type
   433 ;;                  1    wreg      void 
   434 ;; Registers used:
   435 ;;		wreg, status,2
   436 ;; Tracked objects:
   437 ;;		On entry : 0/0
   438 ;;		On exit  : 0/0
   439 ;;		Unchanged: 0/0
   440 ;; Data sizes:     COMRAM   BANK0   BANK1   BANK2   BANK3   BANK4   BANK5   BANK6   BANK7   BANK8   BANK9  BANK10  BANK1
      +1  BANK12  BANK13  BANK14  BANK15
   441 ;;      Params:         0       0       0       0       0       0       0       0       0       0       0       0       
      +0       0       0       0       0
   442 ;;      Locals:         0       0       0       0       0       0       0       0       0       0       0       0       
      +0       0       0       0       0
   443 ;;      Temps:          0       0       0       0       0       0       0       0       0       0       0       0       
      +0       0       0       0       0
   444 ;;      Totals:         0       0       0       0       0       0       0       0       0       0       0       0       
      +0       0       0       0       0
   445 ;;Total ram usage:        0 bytes
   446 ;; Hardware stack levels used:    1
   447 ;; Hardware stack levels required when called:    3
   448 ;; This function calls:
   449 ;;		Nothing
   450 ;; This function is called by:
   451 ;;		_main
   452 ;; This function uses a non-reentrant model
   453 ;;
   454                           
   455                           	psect	text4
   456  000230                     __ptext4:
   457                           	opt stack 0
   458  000230                     _Oscilador_Inicializacao:
   459                           	opt stack 27
   460                           
   461                           ;Oscilador.c: 35: OSCCONbits.SCS = 0;
   462                           
   463                           ;incstack = 0
   464  000230  0EFC               	movlw	-4
   465  000232  16D3               	andwf	4051,f,c	;volatile
   466                           
   467                           ;Oscilador.c: 40: OSCCONbits.IRCF = 6;
   468  000234  50D3               	movf	4051,w,c	;volatile
   469  000236  0B8F               	andlw	-113
   470  000238  0960               	iorlw	96
   471  00023A  6ED3               	movwf	4051,c	;volatile
   472                           
   473                           ;Oscilador.c: 79: OSCTUNEbits.PLLEN= 1;
   474  00023C  8C9B               	bsf	3995,6,c	;volatile
   475  00023E  0012               	return		;funcret
   476  000240                     __end_of_Oscilador_Inicializacao:
   477                           	opt stack 0
   478                           tblptru	equ	0xFF8
   479                           prodh	equ	0xFF4
   480                           prodl	equ	0xFF3
   481                           intcon	equ	0xFF2
   482                           postinc0	equ	0xFEE
   483                           wreg	equ	0xFE8
   484                           indf2	equ	0xFDF
   485                           fsr2h	equ	0xFDA
   486                           fsr2l	equ	0xFD9
   487                           
   488 ;; *************** function _Display_Inicializacao *****************
   489 ;; Defined at:
   490 ;;		line 28 in file "Display de Leds.c"
   491 ;; Parameters:    Size  Location     Type
   492 ;;		None
   493 ;; Auto vars:     Size  Location     Type
   494 ;;		None
   495 ;; Return value:  Size  Location     Type
   496 ;;                  1    wreg      void 
   497 ;; Registers used:
   498 ;;		wreg, status,2, cstack
   499 ;; Tracked objects:
   500 ;;		On entry : 0/0
   501 ;;		On exit  : 0/0
   502 ;;		Unchanged: 0/0
   503 ;; Data sizes:     COMRAM   BANK0   BANK1   BANK2   BANK3   BANK4   BANK5   BANK6   BANK7   BANK8   BANK9  BANK10  BANK1
      +1  BANK12  BANK13  BANK14  BANK15
   504 ;;      Params:         0       0       0       0       0       0       0       0       0       0       0       0       
      +0       0       0       0       0
   505 ;;      Locals:         0       0       0       0       0       0       0       0       0       0       0       0       
      +0       0       0       0       0
   506 ;;      Temps:          0       0       0       0       0       0       0       0       0       0       0       0       
      +0       0       0       0       0
   507 ;;      Totals:         0       0       0       0       0       0       0       0       0       0       0       0       
      +0       0       0       0       0
   508 ;;Total ram usage:        0 bytes
   509 ;; Hardware stack levels used:    1
   510 ;; Hardware stack levels required when called:    4
   511 ;; This function calls:
   512 ;;		_Display_LigaDigito
   513 ;; This function is called by:
   514 ;;		_main
   515 ;; This function uses a non-reentrant model
   516 ;;
   517                           
   518                           	psect	text5
   519  00015E                     __ptext5:
   520                           	opt stack 0
   521  00015E                     _Display_Inicializacao:
   522                           	opt stack 26
   523                           
   524                           ;Display de Leds.c: 31: ANSELDbits.ANSD3 = 0;
   525                           
   526                           ;incstack = 0
   527  00015E  010F               	movlb	15	; () banked
   528  000160  973B               	bcf	59,3,b	;volatile
   529                           
   530                           ;Display de Leds.c: 32: LATDbits.LATD3 = 1;
   531  000162  868C               	bsf	3980,3,c	;volatile
   532                           
   533                           ;Display de Leds.c: 33: TRISDbits.TRISD3 = 0;
   534  000164  9695               	bcf	3989,3,c	;volatile
   535                           
   536                           ;Display de Leds.c: 36: ANSELDbits.ANSD2 = 0;
   537  000166  010F               	movlb	15	; () banked
   538  000168  953B               	bcf	59,2,b	;volatile
   539                           
   540                           ;Display de Leds.c: 37: LATDbits.LATD2 = 0;
   541  00016A  948C               	bcf	3980,2,c	;volatile
   542                           
   543                           ;Display de Leds.c: 38: TRISDbits.TRISD2 = 0;
   544  00016C  9495               	bcf	3989,2,c	;volatile
   545                           
   546                           ; BSR set to: 15
   547                           ;Display de Leds.c: 41: ANSELB = 0;
   548  00016E  0E00               	movlw	0
   549  000170  010F               	movlb	15	; () banked
   550  000172  6F39               	movwf	57,b	;volatile
   551                           
   552                           ;Display de Leds.c: 42: LATB = 0;
   553  000174  0E00               	movlw	0
   554  000176  6E8A               	movwf	3978,c	;volatile
   555                           
   556                           ;Display de Leds.c: 43: TRISB = 0;
   557  000178  0E00               	movlw	0
   558  00017A  6E93               	movwf	3987,c	;volatile
   559                           
   560                           ; BSR set to: 15
   561                           ;Display de Leds.c: 46: Display_LigaDigito (0,0);
   562  00017C  0E00               	movlw	0
   563  00017E  6E11               	movwf	Display_LigaDigito@Caractere,c
   564  000180  0E00               	movlw	0
   565  000182  ECE5  F000         	call	_Display_LigaDigito
   566  000186  0012               	return		;funcret
   567  000188                     __end_of_Display_Inicializacao:
   568                           	opt stack 0
   569                           tblptru	equ	0xFF8
   570                           prodh	equ	0xFF4
   571                           prodl	equ	0xFF3
   572                           intcon	equ	0xFF2
   573                           postinc0	equ	0xFEE
   574                           wreg	equ	0xFE8
   575                           indf2	equ	0xFDF
   576                           fsr2h	equ	0xFDA
   577                           fsr2l	equ	0xFD9
   578                           
   579 ;; *************** function _Display_LigaDigito *****************
   580 ;; Defined at:
   581 ;;		line 60 in file "Display de Leds.c"
   582 ;; Parameters:    Size  Location     Type
   583 ;;  CodigoDoDigi    1    wreg     unsigned char 
   584 ;;  Caractere       1   16[COMRAM] unsigned char 
   585 ;; Auto vars:     Size  Location     Type
   586 ;;  CodigoDoDigi    1   17[COMRAM] unsigned char 
   587 ;; Return value:  Size  Location     Type
   588 ;;                  1    wreg      void 
   589 ;; Registers used:
   590 ;;		wreg
   591 ;; Tracked objects:
   592 ;;		On entry : 0/0
   593 ;;		On exit  : 0/0
   594 ;;		Unchanged: 0/0
   595 ;; Data sizes:     COMRAM   BANK0   BANK1   BANK2   BANK3   BANK4   BANK5   BANK6   BANK7   BANK8   BANK9  BANK10  BANK1
      +1  BANK12  BANK13  BANK14  BANK15
   596 ;;      Params:         1       0       0       0       0       0       0       0       0       0       0       0       
      +0       0       0       0       0
   597 ;;      Locals:         1       0       0       0       0       0       0       0       0       0       0       0       
      +0       0       0       0       0
   598 ;;      Temps:          0       0       0       0       0       0       0       0       0       0       0       0       
      +0       0       0       0       0
   599 ;;      Totals:         2       0       0       0       0       0       0       0       0       0       0       0       
      +0       0       0       0       0
   600 ;;Total ram usage:        2 bytes
   601 ;; Hardware stack levels used:    1
   602 ;; Hardware stack levels required when called:    3
   603 ;; This function calls:
   604 ;;		Nothing
   605 ;; This function is called by:
   606 ;;		_Display_Inicializacao
   607 ;; This function uses a non-reentrant model
   608 ;;
   609                           
   610                           	psect	text6
   611  0001CA                     __ptext6:
   612                           	opt stack 0
   613  0001CA                     _Display_LigaDigito:
   614                           	opt stack 26
   615                           
   616                           ;incstack = 0
   617                           ;Display_LigaDigito@CodigoDoDigito stored from wreg
   618  0001CA  6E12               	movwf	Display_LigaDigito@CodigoDoDigito,c
   619                           
   620                           ;Display de Leds.c: 62: LATDbits.LATD3 = 1;
   621  0001CC  868C               	bsf	3980,3,c	;volatile
   622                           
   623                           ;Display de Leds.c: 64: LATB = CodigoDoDigito;
   624  0001CE  C012  FF8A         	movff	Display_LigaDigito@CodigoDoDigito,3978	;volatile
   625                           
   626                           ;Display de Leds.c: 65: LATDbits.LATD2 = 1;
   627  0001D2  848C               	bsf	3980,2,c	;volatile
   628                           
   629                           ;Display de Leds.c: 66: __nop();
   630  0001D4  F000               	nop	
   631                           
   632                           ;Display de Leds.c: 67: __nop();
   633  0001D6  F000               	nop	
   634                           
   635                           ;Display de Leds.c: 68: LATDbits.LATD2 = 0;
   636  0001D8  948C               	bcf	3980,2,c	;volatile
   637                           
   638                           ;Display de Leds.c: 70: LATB = Caractere;
   639  0001DA  C011  FF8A         	movff	Display_LigaDigito@Caractere,3978	;volatile
   640                           
   641                           ;Display de Leds.c: 71: LATDbits.LATD3 = 0;
   642  0001DE  968C               	bcf	3980,3,c	;volatile
   643  0001E0  0012               	return		;funcret
   644  0001E2                     __end_of_Display_LigaDigito:
   645                           	opt stack 0
   646                           tblptru	equ	0xFF8
   647                           prodh	equ	0xFF4
   648                           prodl	equ	0xFF3
   649                           intcon	equ	0xFF2
   650                           postinc0	equ	0xFEE
   651                           wreg	equ	0xFE8
   652                           indf2	equ	0xFDF
   653                           fsr2h	equ	0xFDA
   654                           fsr2l	equ	0xFD9
   655                           
   656 ;; *************** function _Isr *****************
   657 ;; Defined at:
   658 ;;		line 136 in file "App.c"
   659 ;; Parameters:    Size  Location     Type
   660 ;;		None
   661 ;; Auto vars:     Size  Location     Type
   662 ;;		None
   663 ;; Return value:  Size  Location     Type
   664 ;;                  1    wreg      void 
   665 ;; Registers used:
   666 ;;		wreg, status,2, status,0, cstack
   667 ;; Tracked objects:
   668 ;;		On entry : 0/0
   669 ;;		On exit  : 0/0
   670 ;;		Unchanged: 0/0
   671 ;; Data sizes:     COMRAM   BANK0   BANK1   BANK2   BANK3   BANK4   BANK5   BANK6   BANK7   BANK8   BANK9  BANK10  BANK1
      +1  BANK12  BANK13  BANK14  BANK15
   672 ;;      Params:         0       0       0       0       0       0       0       0       0       0       0       0       
      +0       0       0       0       0
   673 ;;      Locals:         0       0       0       0       0       0       0       0       0       0       0       0       
      +0       0       0       0       0
   674 ;;      Temps:         14       0       0       0       0       0       0       0       0       0       0       0       
      +0       0       0       0       0
   675 ;;      Totals:        14       0       0       0       0       0       0       0       0       0       0       0       
      +0       0       0       0       0
   676 ;;Total ram usage:       14 bytes
   677 ;; Hardware stack levels used:    1
   678 ;; Hardware stack levels required when called:    2
   679 ;; This function calls:
   680 ;;		_Varredura_Monitor
   681 ;;		i2_Timer0_CarregaValor
   682 ;; This function is called by:
   683 ;;		Interrupt level 2
   684 ;; This function uses a non-reentrant model
   685 ;;
   686                           
   687                           	psect	intcode
   688  000008                     __pintcode:
   689                           	opt stack 0
   690  000008                     _Isr:
   691                           	opt stack 26
   692                           
   693                           ;incstack = 0
   694  000008  821B               	bsf	btemp,1,c	;set compiler interrupt flag (level 2)
   695  00000A  CFFA F003          	movff	pclath,??_Isr
   696  00000E  CFFB F004          	movff	pclatu,??_Isr+1
   697  000012  CFE9 F005          	movff	fsr0l,??_Isr+2
   698  000016  CFEA F006          	movff	fsr0h,??_Isr+3
   699  00001A  CFE1 F007          	movff	fsr1l,??_Isr+4
   700  00001E  CFE2 F008          	movff	fsr1h,??_Isr+5
   701  000022  CFD9 F009          	movff	fsr2l,??_Isr+6
   702  000026  CFDA F00A          	movff	fsr2h,??_Isr+7
   703  00002A  CFF3 F00B          	movff	prodl,??_Isr+8
   704  00002E  CFF4 F00C          	movff	prodh,??_Isr+9
   705  000032  CFF6 F00D          	movff	tblptrl,??_Isr+10
   706  000036  CFF7 F00E          	movff	tblptrh,??_Isr+11
   707  00003A  CFF8 F00F          	movff	tblptru,??_Isr+12
   708  00003E  CFF5 F010          	movff	tablat,??_Isr+13
   709                           
   710                           ;App.c: 138: if (TMR0IE && TMR0IF)
   711  000042  BAF2               	btfsc	intcon,5,c	;volatile
   712  000044  A4F2               	btfss	intcon,2,c	;volatile
   713  000046  D005               	goto	i2l86
   714                           
   715                           ;App.c: 139: {
   716                           ;App.c: 140: TMR0IF = 0;
   717  000048  94F2               	bcf	intcon,2,c	;volatile
   718                           
   719                           ;App.c: 141: Timer0_CarregaValor();
   720  00004A  EC0F  F001         	call	i2_Timer0_CarregaValor	;wreg free
   721                           
   722                           ;App.c: 144: Varredura_Monitor();
   723  00004E  EC49  F000         	call	_Varredura_Monitor	;wreg free
   724  000052                     i2l86:
   725  000052  C010  FFF5         	movff	??_Isr+13,tablat
   726  000056  C00F  FFF8         	movff	??_Isr+12,tblptru
   727  00005A  C00E  FFF7         	movff	??_Isr+11,tblptrh
   728  00005E  C00D  FFF6         	movff	??_Isr+10,tblptrl
   729  000062  C00C  FFF4         	movff	??_Isr+9,prodh
   730  000066  C00B  FFF3         	movff	??_Isr+8,prodl
   731  00006A  C00A  FFDA         	movff	??_Isr+7,fsr2h
   732  00006E  C009  FFD9         	movff	??_Isr+6,fsr2l
   733  000072  C008  FFE2         	movff	??_Isr+5,fsr1h
   734  000076  C007  FFE1         	movff	??_Isr+4,fsr1l
   735  00007A  C006  FFEA         	movff	??_Isr+3,fsr0h
   736  00007E  C005  FFE9         	movff	??_Isr+2,fsr0l
   737  000082  C004  FFFB         	movff	??_Isr+1,pclatu
   738  000086  C003  FFFA         	movff	??_Isr,pclath
   739  00008A  921B               	bcf	btemp,1,c	;clear compiler interrupt flag (level 2)
   740  00008C  0011               	retfie		f
   741  00008E                     __end_of_Isr:
   742                           	opt stack 0
   743                           pclatu	equ	0xFFB
   744                           pclath	equ	0xFFA
   745                           tblptru	equ	0xFF8
   746                           tblptrh	equ	0xFF7
   747                           tblptrl	equ	0xFF6
   748                           tablat	equ	0xFF5
   749                           prodh	equ	0xFF4
   750                           prodl	equ	0xFF3
   751                           intcon	equ	0xFF2
   752                           postinc0	equ	0xFEE
   753                           fsr0h	equ	0xFEA
   754                           fsr0l	equ	0xFE9
   755                           wreg	equ	0xFE8
   756                           fsr1h	equ	0xFE2
   757                           fsr1l	equ	0xFE1
   758                           indf2	equ	0xFDF
   759                           fsr2h	equ	0xFDA
   760                           fsr2l	equ	0xFD9
   761                           
   762 ;; *************** function i2_Timer0_CarregaValor *****************
   763 ;; Defined at:
   764 ;;		line 27 in file "App.c"
   765 ;; Parameters:    Size  Location     Type
   766 ;;		None
   767 ;; Auto vars:     Size  Location     Type
   768 ;;  Timer0_Carre    2    0[COMRAM] struct .
   769 ;; Return value:  Size  Location     Type
   770 ;;                  1    wreg      void 
   771 ;; Registers used:
   772 ;;		wreg, status,2
   773 ;; Tracked objects:
   774 ;;		On entry : 0/0
   775 ;;		On exit  : 0/0
   776 ;;		Unchanged: 0/0
   777 ;; Data sizes:     COMRAM   BANK0   BANK1   BANK2   BANK3   BANK4   BANK5   BANK6   BANK7   BANK8   BANK9  BANK10  BANK1
      +1  BANK12  BANK13  BANK14  BANK15
   778 ;;      Params:         0       0       0       0       0       0       0       0       0       0       0       0       
      +0       0       0       0       0
   779 ;;      Locals:         2       0       0       0       0       0       0       0       0       0       0       0       
      +0       0       0       0       0
   780 ;;      Temps:          0       0       0       0       0       0       0       0       0       0       0       0       
      +0       0       0       0       0
   781 ;;      Totals:         2       0       0       0       0       0       0       0       0       0       0       0       
      +0       0       0       0       0
   782 ;;Total ram usage:        2 bytes
   783 ;; Hardware stack levels used:    1
   784 ;; This function calls:
   785 ;;		Nothing
   786 ;; This function is called by:
   787 ;;		_Isr
   788 ;; This function uses a non-reentrant model
   789 ;;
   790                           
   791                           	psect	text8
   792  00021E                     __ptext8:
   793                           	opt stack 0
   794  00021E                     i2_Timer0_CarregaValor:
   795                           	opt stack 27
   796                           
   797                           ;App.c: 29: Uint16 Valor;
   798                           ;App.c: 31: Valor.valor = 43136;
   799                           
   800                           ;incstack = 0
   801  00021E  0EA8               	movlw	168
   802  000220  6E02               	movwf	i2Timer0_CarregaValor@Valor+1,c
   803  000222  0E80               	movlw	128
   804  000224  6E01               	movwf	i2Timer0_CarregaValor@Valor,c
   805                           
   806                           ;App.c: 33: TMR0H = Valor.bytes.byte1;
   807  000226  C002  FFD7         	movff	i2Timer0_CarregaValor@Valor+1,4055	;volatile
   808                           
   809                           ;App.c: 34: TMR0L = Valor.bytes.byte0;
   810  00022A  C001  FFD6         	movff	i2Timer0_CarregaValor@Valor,4054	;volatile
   811  00022E  0012               	return		;funcret
   812  000230                     __end_ofi2_Timer0_CarregaValor:
   813                           	opt stack 0
   814                           pclatu	equ	0xFFB
   815                           pclath	equ	0xFFA
   816                           tblptru	equ	0xFF8
   817                           tblptrh	equ	0xFF7
   818                           tblptrl	equ	0xFF6
   819                           tablat	equ	0xFF5
   820                           prodh	equ	0xFF4
   821                           prodl	equ	0xFF3
   822                           intcon	equ	0xFF2
   823                           postinc0	equ	0xFEE
   824                           fsr0h	equ	0xFEA
   825                           fsr0l	equ	0xFE9
   826                           wreg	equ	0xFE8
   827                           fsr1h	equ	0xFE2
   828                           fsr1l	equ	0xFE1
   829                           indf2	equ	0xFDF
   830                           fsr2h	equ	0xFDA
   831                           fsr2l	equ	0xFD9
   832                           
   833 ;; *************** function _Varredura_Monitor *****************
   834 ;; Defined at:
   835 ;;		line 50 in file "App.c"
   836 ;; Parameters:    Size  Location     Type
   837 ;;		None
   838 ;; Auto vars:     Size  Location     Type
   839 ;;		None
   840 ;; Return value:  Size  Location     Type
   841 ;;                  1    wreg      void 
   842 ;; Registers used:
   843 ;;		wreg, status,2, status,0, cstack
   844 ;; Tracked objects:
   845 ;;		On entry : 0/0
   846 ;;		On exit  : 0/0
   847 ;;		Unchanged: 0/0
   848 ;; Data sizes:     COMRAM   BANK0   BANK1   BANK2   BANK3   BANK4   BANK5   BANK6   BANK7   BANK8   BANK9  BANK10  BANK1
      +1  BANK12  BANK13  BANK14  BANK15
   849 ;;      Params:         0       0       0       0       0       0       0       0       0       0       0       0       
      +0       0       0       0       0
   850 ;;      Locals:         0       0       0       0       0       0       0       0       0       0       0       0       
      +0       0       0       0       0
   851 ;;      Temps:          0       0       0       0       0       0       0       0       0       0       0       0       
      +0       0       0       0       0
   852 ;;      Totals:         0       0       0       0       0       0       0       0       0       0       0       0       
      +0       0       0       0       0
   853 ;;Total ram usage:        0 bytes
   854 ;; Hardware stack levels used:    1
   855 ;; Hardware stack levels required when called:    1
   856 ;; This function calls:
   857 ;;		i2_Display_LigaDigito
   858 ;; This function is called by:
   859 ;;		_Isr
   860 ;; This function uses a non-reentrant model
   861 ;;
   862                           
   863                           	psect	text9
   864  000092                     __ptext9:
   865                           	opt stack 0
   866  000092                     _Varredura_Monitor:
   867                           	opt stack 26
   868                           
   869                           ;App.c: 52: Display_LigaDigito(0,0);
   870                           
   871                           ;incstack = 0
   872  000092  0E00               	movlw	0
   873  000094  6E01               	movwf	i2Display_LigaDigito@Caractere,c
   874  000096  0E00               	movlw	0
   875  000098  ECF1  F000         	call	i2_Display_LigaDigito
   876                           
   877                           ;App.c: 54: switch (CtrlVarredura.Sequencia)
   878  00009C  D02A               	goto	i2l870
   879  00009E                     i2l854:
   880                           
   881                           ;App.c: 57: Display_LigaDigito(0b01000000,CtrlVarredura.Buffer[0]);
   882  00009E  C014  F001         	movff	_CtrlVarredura+1,i2Display_LigaDigito@Caractere
   883  0000A2  0E40               	movlw	64
   884  0000A4  ECF1  F000         	call	i2_Display_LigaDigito
   885                           
   886                           ;App.c: 58: break;
   887  0000A8  D03A               	goto	i2l872
   888  0000AA                     i2l856:
   889                           
   890                           ;App.c: 61: Display_LigaDigito(0b00000001,CtrlVarredura.Buffer[1]);
   891  0000AA  C015  F001         	movff	_CtrlVarredura+2,i2Display_LigaDigito@Caractere
   892  0000AE  0E01               	movlw	1
   893  0000B0  ECF1  F000         	call	i2_Display_LigaDigito
   894                           
   895                           ;App.c: 62: break;
   896  0000B4  D034               	goto	i2l872
   897  0000B6                     i2l858:
   898                           
   899                           ;App.c: 65: Display_LigaDigito(0b00000010,CtrlVarredura.Buffer[2]);
   900  0000B6  C016  F001         	movff	_CtrlVarredura+3,i2Display_LigaDigito@Caractere
   901  0000BA  0E02               	movlw	2
   902  0000BC  ECF1  F000         	call	i2_Display_LigaDigito
   903                           
   904                           ;App.c: 66: break;
   905  0000C0  D02E               	goto	i2l872
   906  0000C2                     i2l860:
   907                           
   908                           ;App.c: 69: Display_LigaDigito(0b00000100,CtrlVarredura.Buffer[3]);
   909  0000C2  C017  F001         	movff	_CtrlVarredura+4,i2Display_LigaDigito@Caractere
   910  0000C6  0E04               	movlw	4
   911  0000C8  ECF1  F000         	call	i2_Display_LigaDigito
   912                           
   913                           ;App.c: 70: break;
   914  0000CC  D028               	goto	i2l872
   915  0000CE                     i2l862:
   916                           
   917                           ;App.c: 73: Display_LigaDigito(0b00001000,CtrlVarredura.Buffer[4]);
   918  0000CE  C018  F001         	movff	_CtrlVarredura+5,i2Display_LigaDigito@Caractere
   919  0000D2  0E08               	movlw	8
   920  0000D4  ECF1  F000         	call	i2_Display_LigaDigito
   921                           
   922                           ;App.c: 74: break;
   923  0000D8  D022               	goto	i2l872
   924  0000DA                     i2l864:
   925                           
   926                           ;App.c: 77: Display_LigaDigito(0b00010000,CtrlVarredura.Buffer[5]);
   927  0000DA  C019  F001         	movff	_CtrlVarredura+6,i2Display_LigaDigito@Caractere
   928  0000DE  0E10               	movlw	16
   929  0000E0  ECF1  F000         	call	i2_Display_LigaDigito
   930                           
   931                           ;App.c: 78: break;
   932  0000E4  D01C               	goto	i2l872
   933  0000E6                     i2l866:
   934                           
   935                           ;App.c: 81: Display_LigaDigito(0b00100000,CtrlVarredura.Buffer[6]);
   936  0000E6  C01A  F001         	movff	_CtrlVarredura+7,i2Display_LigaDigito@Caractere
   937  0000EA  0E20               	movlw	32
   938  0000EC  ECF1  F000         	call	i2_Display_LigaDigito
   939                           
   940                           ;App.c: 83: }
   941                           
   942                           ;App.c: 82: break;
   943  0000F0  D016               	goto	i2l872
   944  0000F2                     i2l870:
   945  0000F2  5013               	movf	_CtrlVarredura,w,c
   946                           
   947                           ; Switch size 1, requested type "space"
   948                           ; Number of cases is 7, Range of values is 0 to 6
   949                           ; switch strategies available:
   950                           ; Name         Instructions Cycles
   951                           ; simple_byte           22    12 (average)
   952                           ;	Chosen strategy is simple_byte
   953  0000F4  0A00               	xorlw	0	; case 0
   954  0000F6  B4D8               	btfsc	status,2,c
   955  0000F8  D7D2               	goto	i2l854
   956  0000FA  0A01               	xorlw	1	; case 1
   957  0000FC  B4D8               	btfsc	status,2,c
   958  0000FE  D7D5               	goto	i2l856
   959  000100  0A03               	xorlw	3	; case 2
   960  000102  B4D8               	btfsc	status,2,c
   961  000104  D7D8               	goto	i2l858
   962  000106  0A01               	xorlw	1	; case 3
   963  000108  B4D8               	btfsc	status,2,c
   964  00010A  D7DB               	goto	i2l860
   965  00010C  0A07               	xorlw	7	; case 4
   966  00010E  B4D8               	btfsc	status,2,c
   967  000110  D7DE               	goto	i2l862
   968  000112  0A01               	xorlw	1	; case 5
   969  000114  B4D8               	btfsc	status,2,c
   970  000116  D7E1               	goto	i2l864
   971  000118  0A03               	xorlw	3	; case 6
   972  00011A  B4D8               	btfsc	status,2,c
   973  00011C  D7E4               	goto	i2l866
   974  00011E                     i2l872:
   975                           
   976                           ;App.c: 85: if (++CtrlVarredura.Sequencia == 7)CtrlVarredura.Sequencia = 0;
   977  00011E  2A13               	incf	_CtrlVarredura,f,c
   978  000120  0E07               	movlw	7
   979  000122  1813               	xorwf	_CtrlVarredura,w,c
   980  000124  A4D8               	btfss	status,2,c
   981  000126  0012               	return	
   982  000128  0E00               	movlw	0
   983  00012A  6E13               	movwf	_CtrlVarredura,c
   984  00012C  0012               	return	
   985  00012E                     __end_of_Varredura_Monitor:
   986                           	opt stack 0
   987                           pclatu	equ	0xFFB
   988                           pclath	equ	0xFFA
   989                           tblptru	equ	0xFF8
   990                           tblptrh	equ	0xFF7
   991                           tblptrl	equ	0xFF6
   992                           tablat	equ	0xFF5
   993                           prodh	equ	0xFF4
   994                           prodl	equ	0xFF3
   995                           intcon	equ	0xFF2
   996                           postinc0	equ	0xFEE
   997                           fsr0h	equ	0xFEA
   998                           fsr0l	equ	0xFE9
   999                           wreg	equ	0xFE8
  1000                           fsr1h	equ	0xFE2
  1001                           fsr1l	equ	0xFE1
  1002                           indf2	equ	0xFDF
  1003                           fsr2h	equ	0xFDA
  1004                           fsr2l	equ	0xFD9
  1005                           status	equ	0xFD8
  1006                           
  1007 ;; *************** function i2_Display_LigaDigito *****************
  1008 ;; Defined at:
  1009 ;;		line 60 in file "Display de Leds.c"
  1010 ;; Parameters:    Size  Location     Type
  1011 ;;  CodigoDoDigi    1    wreg     unsigned char 
  1012 ;;  Caractere       1    0[COMRAM] unsigned char 
  1013 ;; Auto vars:     Size  Location     Type
  1014 ;;  CodigoDoDigi    1    1[COMRAM] unsigned char 
  1015 ;; Return value:  Size  Location     Type
  1016 ;;                  1    wreg      void 
  1017 ;; Registers used:
  1018 ;;		wreg
  1019 ;; Tracked objects:
  1020 ;;		On entry : 0/0
  1021 ;;		On exit  : 0/0
  1022 ;;		Unchanged: 0/0
  1023 ;; Data sizes:     COMRAM   BANK0   BANK1   BANK2   BANK3   BANK4   BANK5   BANK6   BANK7   BANK8   BANK9  BANK10  BANK1
      +1  BANK12  BANK13  BANK14  BANK15
  1024 ;;      Params:         1       0       0       0       0       0       0       0       0       0       0       0       
      +0       0       0       0       0
  1025 ;;      Locals:         1       0       0       0       0       0       0       0       0       0       0       0       
      +0       0       0       0       0
  1026 ;;      Temps:          0       0       0       0       0       0       0       0       0       0       0       0       
      +0       0       0       0       0
  1027 ;;      Totals:         2       0       0       0       0       0       0       0       0       0       0       0       
      +0       0       0       0       0
  1028 ;;Total ram usage:        2 bytes
  1029 ;; Hardware stack levels used:    1
  1030 ;; This function calls:
  1031 ;;		Nothing
  1032 ;; This function is called by:
  1033 ;;		_Varredura_Monitor
  1034 ;; This function uses a non-reentrant model
  1035 ;;
  1036                           
  1037                           	psect	text10
  1038  0001E2                     __ptext10:
  1039                           	opt stack 0
  1040  0001E2                     i2_Display_LigaDigito:
  1041                           	opt stack 26
  1042                           
  1043                           ;incstack = 0
  1044                           ;i2Display_LigaDigito@CodigoDoDigito stored from wreg
  1045  0001E2  6E02               	movwf	i2Display_LigaDigito@CodigoDoDigito,c
  1046                           
  1047                           ;Display de Leds.c: 62: LATDbits.LATD3 = 1;
  1048  0001E4  868C               	bsf	3980,3,c	;volatile
  1049                           
  1050                           ;Display de Leds.c: 64: LATB = CodigoDoDigito;
  1051  0001E6  C002  FF8A         	movff	i2Display_LigaDigito@CodigoDoDigito,3978	;volatile
  1052                           
  1053                           ;Display de Leds.c: 65: LATDbits.LATD2 = 1;
  1054  0001EA  848C               	bsf	3980,2,c	;volatile
  1055                           
  1056                           ;Display de Leds.c: 66: __nop();
  1057  0001EC  F000               	nop	
  1058                           
  1059                           ;Display de Leds.c: 67: __nop();
  1060  0001EE  F000               	nop	
  1061                           
  1062                           ;Display de Leds.c: 68: LATDbits.LATD2 = 0;
  1063  0001F0  948C               	bcf	3980,2,c	;volatile
  1064                           
  1065                           ;Display de Leds.c: 70: LATB = Caractere;
  1066  0001F2  C001  FF8A         	movff	i2Display_LigaDigito@Caractere,3978	;volatile
  1067                           
  1068                           ;Display de Leds.c: 71: LATDbits.LATD3 = 0;
  1069  0001F6  968C               	bcf	3980,3,c	;volatile
  1070  0001F8  0012               	return		;funcret
  1071  0001FA                     __end_ofi2_Display_LigaDigito:
  1072                           	opt stack 0
  1073  0000                     pclatu	equ	0xFFB
  1074                           pclath	equ	0xFFA
  1075                           tblptru	equ	0xFF8
  1076                           tblptrh	equ	0xFF7
  1077                           tblptrl	equ	0xFF6
  1078                           tablat	equ	0xFF5
  1079                           prodh	equ	0xFF4
  1080                           prodl	equ	0xFF3
  1081                           intcon	equ	0xFF2
  1082                           postinc0	equ	0xFEE
  1083                           fsr0h	equ	0xFEA
  1084                           fsr0l	equ	0xFE9
  1085                           wreg	equ	0xFE8
  1086                           fsr1h	equ	0xFE2
  1087                           fsr1l	equ	0xFE1
  1088                           indf2	equ	0xFDF
  1089                           fsr2h	equ	0xFDA
  1090                           fsr2l	equ	0xFD9
  1091                           status	equ	0xFD8
  1092                           pclatu	equ	0xFFB
  1093                           pclath	equ	0xFFA
  1094                           tblptru	equ	0xFF8
  1095                           tblptrh	equ	0xFF7
  1096                           tblptrl	equ	0xFF6
  1097                           tablat	equ	0xFF5
  1098                           prodh	equ	0xFF4
  1099                           prodl	equ	0xFF3
  1100                           intcon	equ	0xFF2
  1101                           postinc0	equ	0xFEE
  1102                           fsr0h	equ	0xFEA
  1103                           fsr0l	equ	0xFE9
  1104                           wreg	equ	0xFE8
  1105                           fsr1h	equ	0xFE2
  1106                           fsr1l	equ	0xFE1
  1107                           indf2	equ	0xFDF
  1108                           fsr2h	equ	0xFDA
  1109                           fsr2l	equ	0xFD9
  1110                           status	equ	0xFD8
  1111                           
  1112                           	psect	rparam
  1113  0000                     pclatu	equ	0xFFB
  1114                           pclath	equ	0xFFA
  1115                           tblptru	equ	0xFF8
  1116                           tblptrh	equ	0xFF7
  1117                           tblptrl	equ	0xFF6
  1118                           tablat	equ	0xFF5
  1119                           prodh	equ	0xFF4
  1120                           prodl	equ	0xFF3
  1121                           intcon	equ	0xFF2
  1122                           postinc0	equ	0xFEE
  1123                           fsr0h	equ	0xFEA
  1124                           fsr0l	equ	0xFE9
  1125                           wreg	equ	0xFE8
  1126                           fsr1h	equ	0xFE2
  1127                           fsr1l	equ	0xFE1
  1128                           indf2	equ	0xFDF
  1129                           fsr2h	equ	0xFDA
  1130                           fsr2l	equ	0xFD9
  1131                           status	equ	0xFD8
  1132                           
  1133                           	psect	temp
  1134  00001B                     btemp:
  1135                           	opt stack 0
  1136  00001B                     	ds	1
  1137  0000                     int$flags	set	btemp
  1138                           pclatu	equ	0xFFB
  1139                           pclath	equ	0xFFA
  1140                           tblptru	equ	0xFF8
  1141                           tblptrh	equ	0xFF7
  1142                           tblptrl	equ	0xFF6
  1143                           tablat	equ	0xFF5
  1144                           prodh	equ	0xFF4
  1145                           prodl	equ	0xFF3
  1146                           intcon	equ	0xFF2
  1147                           postinc0	equ	0xFEE
  1148                           fsr0h	equ	0xFEA
  1149                           fsr0l	equ	0xFE9
  1150                           wreg	equ	0xFE8
  1151                           fsr1h	equ	0xFE2
  1152                           fsr1l	equ	0xFE1
  1153                           indf2	equ	0xFDF
  1154                           fsr2h	equ	0xFDA
  1155                           fsr2l	equ	0xFD9
  1156                           status	equ	0xFD8


Data Sizes:
    Strings     0
    Constant    0
    Data        0
    BSS         8
    Persistent  0
    Stack       0

Auto Spaces:
    Space          Size  Autos    Used
    COMRAM           94     18      26
    BANK0           160      0       0
    BANK1           256      0       0
    BANK2           256      0       0
    BANK3           256      0       0
    BANK4           256      0       0
    BANK5           256      0       0
    BANK6           256      0       0
    BANK7           256      0       0
    BANK8           256      0       0
    BANK9           256      0       0
    BANK10          256      0       0
    BANK11          256      0       0
    BANK12          256      0       0
    BANK13          256      0       0
    BANK14          256      0       0
    BANK15           56      0       0

Pointer List with Targets:

    None.

Critical Paths under _main in COMRAM

    _Timer0_Inicializacao->_Timer0_CarregaValor
    _Display_Inicializacao->_Display_LigaDigito

Critical Paths under _Isr in COMRAM

    _Isr->i2_Timer0_CarregaValor
    _Varredura_Monitor->i2_Display_LigaDigito

Critical Paths under _main in BANK0

    None.

Critical Paths under _Isr in BANK0

    None.

Critical Paths under _main in BANK1

    None.

Critical Paths under _Isr in BANK1

    None.

Critical Paths under _main in BANK2

    None.

Critical Paths under _Isr in BANK2

    None.

Critical Paths under _main in BANK3

    None.

Critical Paths under _Isr in BANK3

    None.

Critical Paths under _main in BANK4

    None.

Critical Paths under _Isr in BANK4

    None.

Critical Paths under _main in BANK5

    None.

Critical Paths under _Isr in BANK5

    None.

Critical Paths under _main in BANK6

    None.

Critical Paths under _Isr in BANK6

    None.

Critical Paths under _main in BANK7

    None.

Critical Paths under _Isr in BANK7

    None.

Critical Paths under _main in BANK8

    None.

Critical Paths under _Isr in BANK8

    None.

Critical Paths under _main in BANK9

    None.

Critical Paths under _Isr in BANK9

    None.

Critical Paths under _main in BANK10

    None.

Critical Paths under _Isr in BANK10

    None.

Critical Paths under _main in BANK11

    None.

Critical Paths under _Isr in BANK11

    None.

Critical Paths under _main in BANK12

    None.

Critical Paths under _Isr in BANK12

    None.

Critical Paths under _main in BANK13

    None.

Critical Paths under _Isr in BANK13

    None.

Critical Paths under _main in BANK14

    None.

Critical Paths under _Isr in BANK14

    None.

Critical Paths under _main in BANK15

    None.

Critical Paths under _Isr in BANK15

    None.

Call Graph Tables:

 ---------------------------------------------------------------------------------
 (Depth) Function   	        Calls       Base Space   Used Autos Params    Refs
 ---------------------------------------------------------------------------------
 (0) _main                                                 0     0      0     298
              _Display_Inicializacao
            _Oscilador_Inicializacao
               _Timer0_Inicializacao
            _Varredura_Inicializacao
 ---------------------------------------------------------------------------------
 (1) _Varredura_Inicializacao                              1     1      0      45
                                             16 COMRAM     1     1      0
 ---------------------------------------------------------------------------------
 (1) _Timer0_Inicializacao                                 0     0      0      30
                _Timer0_CarregaValor
 ---------------------------------------------------------------------------------
 (2) _Timer0_CarregaValor                                  2     2      0      30
                                             16 COMRAM     2     2      0
 ---------------------------------------------------------------------------------
 (1) _Oscilador_Inicializacao                              0     0      0       0
 ---------------------------------------------------------------------------------
 (1) _Display_Inicializacao                                0     0      0     223
                 _Display_LigaDigito
 ---------------------------------------------------------------------------------
 (2) _Display_LigaDigito                                   2     1      1     223
                                             16 COMRAM     2     1      1
 ---------------------------------------------------------------------------------
 Estimated maximum stack depth 2
 ---------------------------------------------------------------------------------
 (Depth) Function   	        Calls       Base Space   Used Autos Params    Refs
 ---------------------------------------------------------------------------------
 (3) _Isr                                                 14    14      0     282
                                              2 COMRAM    14    14      0
                  _Varredura_Monitor
              i2_Timer0_CarregaValor
 ---------------------------------------------------------------------------------
 (4) i2_Timer0_CarregaValor                                2     2      0      30
                                              0 COMRAM     2     2      0
 ---------------------------------------------------------------------------------
 (4) _Varredura_Monitor                                    0     0      0     252
               i2_Display_LigaDigito
 ---------------------------------------------------------------------------------
 (5) i2_Display_LigaDigito                                 2     1      1     252
                                              0 COMRAM     2     1      1
 ---------------------------------------------------------------------------------
 Estimated maximum stack depth 5
 ---------------------------------------------------------------------------------

 Call Graph Graphs:

 _main (ROOT)
   _Display_Inicializacao
     _Display_LigaDigito
   _Oscilador_Inicializacao
   _Timer0_Inicializacao
     _Timer0_CarregaValor
   _Varredura_Inicializacao

 _Isr (ROOT)
   _Varredura_Monitor
     i2_Display_LigaDigito
   i2_Timer0_CarregaValor

 Address spaces:
Name               Size   Autos  Total    Cost      Usage
BIGRAM             F37      0       0      37        0.0%
EEDATA             400      0       0       0        0.0%
BITBANK14          100      0       0      33        0.0%
BANK14             100      0       0      34        0.0%
BITBANK13          100      0       0      31        0.0%
BANK13             100      0       0      32        0.0%
BITBANK12          100      0       0      29        0.0%
BANK12             100      0       0      30        0.0%
BITBANK11          100      0       0      27        0.0%
BANK11             100      0       0      28        0.0%
BITBANK10          100      0       0      25        0.0%
BANK10             100      0       0      26        0.0%
BITBANK9           100      0       0      23        0.0%
BANK9              100      0       0      24        0.0%
BITBANK8           100      0       0      21        0.0%
BANK8              100      0       0      22        0.0%
BITBANK7           100      0       0      19        0.0%
BANK7              100      0       0      20        0.0%
BITBANK6           100      0       0      17        0.0%
BANK6              100      0       0      18        0.0%
BITBANK5           100      0       0      15        0.0%
BANK5              100      0       0      16        0.0%
BITBANK4           100      0       0      13        0.0%
BANK4              100      0       0      14        0.0%
BITBANK3           100      0       0      10        0.0%
BANK3              100      0       0      11        0.0%
BITBANK2           100      0       0       8        0.0%
BANK2              100      0       0       9        0.0%
BITBANK1           100      0       0       6        0.0%
BANK1              100      0       0       7        0.0%
BITBANK0            A0      0       0       4        0.0%
BANK0               A0      0       0       5        0.0%
BITCOMRAM           5E      0       0       0        0.0%
COMRAM              5E     12      1A       1       27.7%
BITBANK15           38      0       0      35        0.0%
BANK15              38      0       0      36        0.0%
BITSFR_1             0      0       0      40        0.0%
SFR_1                0      0       0      40        0.0%
BITSFR               0      0       0      40        0.0%
SFR                  0      0       0      40        0.0%
STACK                0      0       0       2        0.0%
NULL                 0      0       0       0        0.0%
ABS                  0      0      1A      12        0.0%
DATA                 0      0      1A       3        0.0%
CODE                 0      0       0       0        0.0%


Microchip Technology PIC18 Macro Assembler V1.36 build -262312587 
Symbol Table                                                                                   Tue Nov 08 21:07:25 2016

                                l79 015C                                 l770 0198  
                               l766 0190        __end_ofi2_Display_LigaDigito 01FA  
                               _Isr 0008        __size_of_Timer0_CarregaValor 0012  
                               prod 000FF3                                 wreg 000FE8  
        __size_of_Varredura_Monitor 009C                                ?_Isr 0001  
                              _LATB 000F8A                                i2l86 0052  
                              _main 012E                                fsr0h 000FEA  
                              fsr1h 000FE2                                fsr0l 000FE9  
                              fsr2h 000FDA                                fsr1l 000FE1  
                              indf2 000FDF                                fsr2l 000FD9  
                              btemp 001B                                pclat 000FFA  
                              prodh 000FF4                                prodl 000FF3  
                              start 008E               i2_Timer0_CarregaValor 021E  
                     __CFG_IESO$OFF 000000                        ___param_bank 000010  
                             ??_Isr 0003            ?_Varredura_Inicializacao 0001  
                             ?_main 0001                               i2l860 00C2  
                             i2l862 00CE                               i2l854 009E  
                             i2l870 00F2                               i2l864 00DA  
                             i2l856 00AA                               i2l872 011E  
                             i2l866 00E6                               i2l858 00B6  
                             _TMR0H 000FD7                               _TMR0L 000FD6  
                             _TRISB 000F93                      __CFG_FCMEN$OFF 000000  
                             tablat 000FF5                               status 000FD8  
              _Timer0_Inicializacao 01FA            ?_Oscilador_Inicializacao 0001  
                   __initialization 01B0                        __end_of_main 015E  
                            ??_main 0013                       __activetblptr 000002  
                            _ANSELB 000F39         __size_of_Display_LigaDigito 0018  
    __size_of_Display_Inicializacao 002A       __end_of_Display_Inicializacao 0188  
             ?_Timer0_Inicializacao 0001                              _TMR0IE 007F95  
                            _TMR0IF 007F92              ?i2_Timer0_CarregaValor 0001  
              i2_Display_LigaDigito 01E2     __end_of_Varredura_Inicializacao 01B0  
                            clear_0 01B6                              tblptrh 000FF7  
                            tblptrl 000FF6                              tblptru 000FF8  
                        __accesstop 0060             __end_of__initialization 01BC  
   __end_of_Oscilador_Inicializacao 0240                       ___rparam_used 000001  
             ?i2_Display_LigaDigito 0001                 _Timer0_CarregaValor 020C  
                    __pcstackCOMRAM 0001                ?_Timer0_CarregaValor 0001  
            ??_Timer0_Inicializacao 0013               ??_Timer0_CarregaValor 0011  
  __size_of_Varredura_Inicializacao 0028              ??i2_Display_LigaDigito 0002  
          Varredura_Inicializacao@i 0011                             __Hparam 0000  
                           __Lparam 0000                             __pcinit 01B0  
                           __ramtop 1000                             __ptext0 012E  
                           __ptext1 0188                             __ptext2 01FA  
                           __ptext3 020C                             __ptext4 0230  
                           __ptext5 015E                             __ptext6 01CA  
                           __ptext8 021E                             __ptext9 0092  
                         _T0CONbits 000FD5                        __size_of_Isr 0086  
  __size_of_Oscilador_Inicializacao 0010             ??i2_Timer0_CarregaValor 0001  
              end_of_initialization 01BC                       __Lmediumconst 0000  
                           postinc0 000FEE    Display_LigaDigito@CodigoDoDigito 0012  
i2Display_LigaDigito@CodigoDoDigito 0002                           _TRISDbits 000F95  
        __end_of_Display_LigaDigito 01E2               _Display_Inicializacao 015E  
     i2Display_LigaDigito@Caractere 0001                 start_initialization 01B0  
           _Varredura_Inicializacao 0188                         __end_of_Isr 008E  
        i2Timer0_CarregaValor@Valor 0001             _Oscilador_Inicializacao 0230  
                       __pbssCOMRAM 0013              ?_Display_Inicializacao 0001  
     __size_of_Timer0_Inicializacao 0012                           __pintcode 0008  
       __end_of_Timer0_CarregaValor 021E           ??_Varredura_Inicializacao 0011  
       Display_LigaDigito@Caractere 0011      __size_ofi2_Timer0_CarregaValor 0012  
     __end_ofi2_Timer0_CarregaValor 0230                            _LATDbits 000F8C  
     __size_ofi2_Display_LigaDigito 0018           ??_Oscilador_Inicializacao 0011  
                _Display_LigaDigito 01CA                            __Hrparam 0000  
                          __Lrparam 0000                 ?_Display_LigaDigito 0011  
                        _ANSELDbits 000F3B                            __ptext10 01E2  
          Timer0_CarregaValor@Valor 0011                ??_Display_LigaDigito 0012  
                 _Varredura_Monitor 0092                  ?_Varredura_Monitor 0001  
                     __size_of_main 0030                 ??_Varredura_Monitor 0003  
                          int$flags 001B                         _OSCTUNEbits 000F9B  
                        _INTCONbits 000FF2           __end_of_Varredura_Monitor 012E  
           ??_Display_Inicializacao 0013                            intlevel2 0000  
                        _OSCCONbits 000FD3        __end_of_Timer0_Inicializacao 020C  
                     _CtrlVarredura 0013                   __CFG_FOSC$INTIO67 000000  
